; Function Attrs: mustprogress nounwind uwtable
define internal fastcc void @_ZNSt8_Rb_treeIN3ue212_GLOBAL__N_110ClusterKeyESt4pairIKS2_St6vectorINS0_8raw_puffESaIS6_EEESt10_Select1stIS9_ESt4lessIS2_ESaIS9_EE8_M_eraseEPSt13_Rb_tree_nodeIS9_E(ptr noundef %0) unnamed_addr #18 align 2 personality ptr @__gxx_personality_v0 {
  %.not1 = icmp eq ptr %0, null
  br i1 %.not1, label %._crit_edge, label %.lr.ph

.lr.ph:                                           ; preds = %1, %_ZNSt8_Rb_treeIN3ue212_GLOBAL__N_110ClusterKeyESt4pairIKS2_St6vectorINS0_8raw_puffESaIS6_EEESt10_Select1stIS9_ESt4lessIS2_ESaIS9_EE12_M_drop_nodeEPSt13_Rb_tree_nodeIS9_E.exit
  %.02 = phi ptr [ %.0.val, %_ZNSt8_Rb_treeIN3ue212_GLOBAL__N_110ClusterKeyESt4pairIKS2_St6vectorINS0_8raw_puffESaIS6_EEESt10_Select1stIS9_ESt4lessIS2_ESaIS9_EE12_M_drop_nodeEPSt13_Rb_tree_nodeIS9_E.exit ], [ %0, %1 ]
  %2 = getelementptr i8, ptr %.02, i64 24
  %.0.val6 = load ptr, ptr %2, align 8
  tail call fastcc void @_ZNSt8_Rb_treeIN3ue212_GLOBAL__N_110ClusterKeyESt4pairIKS2_St6vectorINS0_8raw_puffESaIS6_EEESt10_Select1stIS9_ESt4lessIS2_ESaIS9_EE8_M_eraseEPSt13_Rb_tree_nodeIS9_E(ptr noundef %.0.val6)
  %3 = getelementptr i8, ptr %.02, i64 16
  %.0.val = load ptr, ptr %3, align 8
  %4 = getelementptr i8, ptr %.02, i64 80
  %.val.i = load ptr, ptr %4, align 8
  %.not.i.i.i.i.i.i.i.i = icmp eq ptr %.val.i, null
  br i1 %.not.i.i.i.i.i.i.i.i, label %_ZNSt8_Rb_treeIN3ue212_GLOBAL__N_110ClusterKeyESt4pairIKS2_St6vectorINS0_8raw_puffESaIS6_EEESt10_Select1stIS9_ESt4lessIS2_ESaIS9_EE12_M_drop_nodeEPSt13_Rb_tree_nodeIS9_E.exit, label %5

5:                                                ; preds = %.lr.ph
  tail call void @_ZdlPv(ptr noundef nonnull %.val.i) #23
  br label %_ZNSt8_Rb_treeIN3ue212_GLOBAL__N_110ClusterKeyESt4pairIKS2_St6vectorINS0_8raw_puffESaIS6_EEESt10_Select1stIS9_ESt4lessIS2_ESaIS9_EE12_M_drop_nodeEPSt13_Rb_tree_nodeIS9_E.exit

_ZNSt8_Rb_treeIN3ue212_GLOBAL__N_110ClusterKeyESt4pairIKS2_St6vectorINS0_8raw_puffESaIS6_EEESt10_Select1stIS9_ESt4lessIS2_ESaIS9_EE12_M_drop_nodeEPSt13_Rb_tree_nodeIS9_E.exit: ; preds = %.lr.ph, %5
  tail call void @_ZdlPv(ptr noundef nonnull %.02) #23
  %.not = icmp eq ptr %.0.val, null
  br i1 %.not, label %._crit_edge, label %.lr.ph, !llvm.loop !67

._crit_edge:                                      ; preds = %_ZNSt8_Rb_treeIN3ue212_GLOBAL__N_110ClusterKeyESt4pairIKS2_St6vectorINS0_8raw_puffESaIS6_EEESt10_Select1stIS9_ESt4lessIS2_ESaIS9_EE12_M_drop_nodeEPSt13_Rb_tree_nodeIS9_E.exit, %1
  ret void
}